target datalayout = "e-m:e-p270:32:32-p271:32:32-p272:64:64-i64:64-i128:128-f80:128-n8:16:32:64-S128"
target triple = "x86_64-pc-linux-gnu"

%struct.PJconsts = type { ptr, ptr, ptr, ptr, ptr, ptr, ptr, ptr, ptr, ptr, ptr, ptr, i32, ptr, ptr, ptr, ptr, ptr, ptr, ptr, ptr, double, double, double, double, double, double, double, double, double, double, double, double, double, double, double, double, double, double, double, double, double, double, i32, i32, i32, i32, i32, i32, i32, i32, i32, i32, i32, ptr, ptr, ptr, ptr, ptr, ptr, double, double, double, double, double, double, double, double, double, double, double, i32, [7 x double], i32, ptr, ptr, double, double, i32, [4 x i8], %"class.std::shared_ptr", i8, double, i8, %"class.std::__cxx11::basic_string", %"class.std::__cxx11::basic_string", %"class.std::__cxx11::basic_string", i8, %"class.std::vector", i32, %"class.std::vector.3", i32, i8, i8, i8, ptr }
%"class.std::shared_ptr" = type { %"class.std::__shared_ptr" }
%"class.std::__shared_ptr" = type { ptr, %"class.std::__shared_count" }
%"class.std::__shared_count" = type { ptr }
%"class.std::__cxx11::basic_string" = type { %"struct.std::__cxx11::basic_string<char>::_Alloc_hider", i64, %union.anon }
%"struct.std::__cxx11::basic_string<char>::_Alloc_hider" = type { ptr }
%union.anon = type { i64, [8 x i8] }
%"class.std::vector" = type { %"struct.std::_Vector_base" }
%"struct.std::_Vector_base" = type { %"struct.std::_Vector_base<osgeo::proj::operation::GridDescription, std::allocator<osgeo::proj::operation::GridDescription>>::_Vector_impl" }
%"struct.std::_Vector_base<osgeo::proj::operation::GridDescription, std::allocator<osgeo::proj::operation::GridDescription>>::_Vector_impl" = type { %"struct.std::_Vector_base<osgeo::proj::operation::GridDescription, std::allocator<osgeo::proj::operation::GridDescription>>::_Vector_impl_data" }
%"struct.std::_Vector_base<osgeo::proj::operation::GridDescription, std::allocator<osgeo::proj::operation::GridDescription>>::_Vector_impl_data" = type { ptr, ptr, ptr }
%"class.std::vector.3" = type { %"struct.std::_Vector_base.4" }
%"struct.std::_Vector_base.4" = type { %"struct.std::_Vector_base<PJCoordOperation, std::allocator<PJCoordOperation>>::_Vector_impl" }
%"struct.std::_Vector_base<PJCoordOperation, std::allocator<PJCoordOperation>>::_Vector_impl" = type { %"struct.std::_Vector_base<PJCoordOperation, std::allocator<PJCoordOperation>>::_Vector_impl_data" }
%"struct.std::_Vector_base<PJCoordOperation, std::allocator<PJCoordOperation>>::_Vector_impl_data" = type { ptr, ptr, ptr }
%"struct.pj_imoll_o_ns::pj_imoll_o_data" = type { [6 x ptr], double, double, double, double }
%struct.PJ_LP = type { double, double }
%struct.PJ_XY = type { double, double }

; Function Attrs: mustprogress uwtable
define internal { double, double } @_ZL17imoll_o_s_inverse5PJ_XYP8PJconsts(double %0, double %1, ptr noundef %2) #0 {
  %4 = alloca %struct.PJ_LP, align 8
  %5 = alloca %struct.PJ_XY, align 8
  %6 = alloca ptr, align 8
  %7 = alloca ptr, align 8
  %8 = alloca double, align 8
  %9 = alloca i32, align 4
  %10 = alloca i8, align 1
  %11 = alloca %struct.PJ_LP, align 8
  %12 = alloca %struct.PJ_XY, align 8
  %13 = getelementptr inbounds nuw { double, double }, ptr %5, i32 0, i32 0
  store double %0, ptr %13, align 8
  %14 = getelementptr inbounds nuw { double, double }, ptr %5, i32 0, i32 1
  store double %1, ptr %14, align 8
  store ptr %2, ptr %6, align 8, !tbaa !3
  call void @llvm.memset.p0.i64(ptr align 8 %4, i8 0, i64 16, i1 false)
  call void @llvm.lifetime.start.p0(i64 8, ptr %7) #7
  %15 = load ptr, ptr %6, align 8, !tbaa !3
  %16 = getelementptr inbounds nuw %struct.PJconsts, ptr %15, i32 0, i32 11
  %17 = load ptr, ptr %16, align 8, !tbaa !43
  store ptr %17, ptr %7, align 8, !tbaa !41
  call void @llvm.lifetime.start.p0(i64 8, ptr %8) #7
  %18 = call double @sqrt(double noundef 2.000000e+00) #7, !tbaa !54
  store double %18, ptr %8, align 8, !tbaa !56
  call void @llvm.lifetime.start.p0(i64 4, ptr %9) #7
  store i32 0, ptr %9, align 4, !tbaa !54
  %19 = getelementptr inbounds nuw %struct.PJ_XY, ptr %5, i32 0, i32 1
  %20 = load double, ptr %19, align 8, !tbaa !68
  %21 = load double, ptr %8, align 8, !tbaa !56
  %22 = fadd double %21, 1.000000e-10
  %23 = fcmp ogt double %20, %22
  br i1 %23, label %31, label %24

24:                                               ; preds = %3
  %25 = getelementptr inbounds nuw %struct.PJ_XY, ptr %5, i32 0, i32 1
  %26 = load double, ptr %25, align 8, !tbaa !68
  %27 = load double, ptr %8, align 8, !tbaa !56
  %28 = fneg double %27
  %29 = fadd double %28, 1.000000e-10
  %30 = fcmp olt double %26, %29
  br i1 %30, label %31, label %32

31:                                               ; preds = %24, %3
  store i32 0, ptr %9, align 4, !tbaa !54
  br label %75

32:                                               ; preds = %24
  %33 = getelementptr inbounds nuw %struct.PJ_XY, ptr %5, i32 0, i32 1
  %34 = load double, ptr %33, align 8, !tbaa !68
  %35 = fcmp oge double %34, 0.000000e+00
  br i1 %35, label %36, label %55

36:                                               ; preds = %32
  %37 = getelementptr inbounds nuw %struct.PJ_XY, ptr %5, i32 0, i32 0
  %38 = load double, ptr %37, align 8, !tbaa !66
  %39 = load ptr, ptr %7, align 8, !tbaa !41
  %40 = getelementptr inbounds nuw %"struct.pj_imoll_o_ns::pj_imoll_o_data", ptr %39, i32 0, i32 1
  %41 = load double, ptr %40, align 8, !tbaa !45
  %42 = fcmp ole double %38, %41
  br i1 %42, label %43, label %44

43:                                               ; preds = %36
  store i32 1, ptr %9, align 4, !tbaa !54
  br label %54

44:                                               ; preds = %36
  %45 = getelementptr inbounds nuw %struct.PJ_XY, ptr %5, i32 0, i32 0
  %46 = load double, ptr %45, align 8, !tbaa !66
  %47 = load ptr, ptr %7, align 8, !tbaa !41
  %48 = getelementptr inbounds nuw %"struct.pj_imoll_o_ns::pj_imoll_o_data", ptr %47, i32 0, i32 2
  %49 = load double, ptr %48, align 8, !tbaa !47
  %50 = fcmp oge double %46, %49
  br i1 %50, label %51, label %52

51:                                               ; preds = %44
  store i32 3, ptr %9, align 4, !tbaa !54
  br label %53

52:                                               ; preds = %44
  store i32 2, ptr %9, align 4, !tbaa !54
  br label %53

53:                                               ; preds = %52, %51
  br label %54

54:                                               ; preds = %53, %43
  br label %74

55:                                               ; preds = %32
  %56 = getelementptr inbounds nuw %struct.PJ_XY, ptr %5, i32 0, i32 0
  %57 = load double, ptr %56, align 8, !tbaa !66
  %58 = load ptr, ptr %7, align 8, !tbaa !41
  %59 = getelementptr inbounds nuw %"struct.pj_imoll_o_ns::pj_imoll_o_data", ptr %58, i32 0, i32 3
  %60 = load double, ptr %59, align 8, !tbaa !48
  %61 = fcmp ole double %57, %60
  br i1 %61, label %62, label %63

62:                                               ; preds = %55
  store i32 4, ptr %9, align 4, !tbaa !54
  br label %73

63:                                               ; preds = %55
  %64 = getelementptr inbounds nuw %struct.PJ_XY, ptr %5, i32 0, i32 0
  %65 = load double, ptr %64, align 8, !tbaa !66
  %66 = load ptr, ptr %7, align 8, !tbaa !41
  %67 = getelementptr inbounds nuw %"struct.pj_imoll_o_ns::pj_imoll_o_data", ptr %66, i32 0, i32 4
  %68 = load double, ptr %67, align 8, !tbaa !49
  %69 = fcmp oge double %65, %68
  br i1 %69, label %70, label %71

70:                                               ; preds = %63
  store i32 6, ptr %9, align 4, !tbaa !54
  br label %72

71:                                               ; preds = %63
  store i32 5, ptr %9, align 4, !tbaa !54
  br label %72

72:                                               ; preds = %71, %70
  br label %73

73:                                               ; preds = %72, %62
  br label %74

74:                                               ; preds = %73, %54
  br label %75

75:                                               ; preds = %74, %31
  %76 = load i32, ptr %9, align 4, !tbaa !54
  %77 = icmp ne i32 %76, 0
  br i1 %77, label %78, label %239

78:                                               ; preds = %75
  call void @llvm.lifetime.start.p0(i64 1, ptr %10) #7
  store i8 0, ptr %10, align 1, !tbaa !69
  %79 = load ptr, ptr %7, align 8, !tbaa !41
  %80 = getelementptr inbounds nuw %"struct.pj_imoll_o_ns::pj_imoll_o_data", ptr %79, i32 0, i32 0
  %81 = load i32, ptr %9, align 4, !tbaa !54
  %82 = sub nsw i32 %81, 1
  %83 = sext i32 %82 to i64
  %84 = getelementptr inbounds [6 x ptr], ptr %80, i64 0, i64 %83
  %85 = load ptr, ptr %84, align 8, !tbaa !3
  %86 = getelementptr inbounds nuw %struct.PJconsts, ptr %85, i32 0, i32 62
  %87 = load double, ptr %86, align 8, !tbaa !44
  %88 = getelementptr inbounds nuw %struct.PJ_XY, ptr %5, i32 0, i32 0
  %89 = load double, ptr %88, align 8, !tbaa !66
  %90 = fsub double %89, %87
  store double %90, ptr %88, align 8, !tbaa !66
  %91 = load ptr, ptr %7, align 8, !tbaa !41
  %92 = getelementptr inbounds nuw %"struct.pj_imoll_o_ns::pj_imoll_o_data", ptr %91, i32 0, i32 0
  %93 = load i32, ptr %9, align 4, !tbaa !54
  %94 = sub nsw i32 %93, 1
  %95 = sext i32 %94 to i64
  %96 = getelementptr inbounds [6 x ptr], ptr %92, i64 0, i64 %95
  %97 = load ptr, ptr %96, align 8, !tbaa !3
  %98 = getelementptr inbounds nuw %struct.PJconsts, ptr %97, i32 0, i32 63
  %99 = load double, ptr %98, align 8, !tbaa !58
  %100 = getelementptr inbounds nuw %struct.PJ_XY, ptr %5, i32 0, i32 1
  %101 = load double, ptr %100, align 8, !tbaa !68
  %102 = fsub double %101, %99
  store double %102, ptr %100, align 8, !tbaa !68
  call void @llvm.lifetime.start.p0(i64 16, ptr %11) #7
  %103 = load ptr, ptr %7, align 8, !tbaa !41
  %104 = getelementptr inbounds nuw %"struct.pj_imoll_o_ns::pj_imoll_o_data", ptr %103, i32 0, i32 0
  %105 = load i32, ptr %9, align 4, !tbaa !54
  %106 = sub nsw i32 %105, 1
  %107 = sext i32 %106 to i64
  %108 = getelementptr inbounds [6 x ptr], ptr %104, i64 0, i64 %107
  %109 = load ptr, ptr %108, align 8, !tbaa !3
  %110 = getelementptr inbounds nuw %struct.PJconsts, ptr %109, i32 0, i32 14
  %111 = load ptr, ptr %110, align 8, !tbaa !50
  call void @llvm.memcpy.p0.p0.i64(ptr align 8 %12, ptr align 8 %5, i64 16, i1 false), !tbaa.struct !65
  %112 = load ptr, ptr %7, align 8, !tbaa !41
  %113 = getelementptr inbounds nuw %"struct.pj_imoll_o_ns::pj_imoll_o_data", ptr %112, i32 0, i32 0
  %114 = load i32, ptr %9, align 4, !tbaa !54
  %115 = sub nsw i32 %114, 1
  %116 = sext i32 %115 to i64
  %117 = getelementptr inbounds [6 x ptr], ptr %113, i64 0, i64 %116
  %118 = load ptr, ptr %117, align 8, !tbaa !3
  %119 = getelementptr inbounds nuw { double, double }, ptr %12, i32 0, i32 0
  %120 = load double, ptr %119, align 8
  %121 = getelementptr inbounds nuw { double, double }, ptr %12, i32 0, i32 1
  %122 = load double, ptr %121, align 8
  %123 = call { double, double } %111(double %120, double %122, ptr noundef %118)
  %124 = getelementptr inbounds nuw { double, double }, ptr %11, i32 0, i32 0
  %125 = extractvalue { double, double } %123, 0
  store double %125, ptr %124, align 8
  %126 = getelementptr inbounds nuw { double, double }, ptr %11, i32 0, i32 1
  %127 = extractvalue { double, double } %123, 1
  store double %127, ptr %126, align 8
  call void @llvm.memcpy.p0.p0.i64(ptr align 8 %4, ptr align 8 %11, i64 16, i1 false), !tbaa.struct !65
  call void @llvm.lifetime.end.p0(i64 16, ptr %11) #7
  %128 = load ptr, ptr %7, align 8, !tbaa !41
  %129 = getelementptr inbounds nuw %"struct.pj_imoll_o_ns::pj_imoll_o_data", ptr %128, i32 0, i32 0
  %130 = load i32, ptr %9, align 4, !tbaa !54
  %131 = sub nsw i32 %130, 1
  %132 = sext i32 %131 to i64
  %133 = getelementptr inbounds [6 x ptr], ptr %129, i64 0, i64 %132
  %134 = load ptr, ptr %133, align 8, !tbaa !3
  %135 = getelementptr inbounds nuw %struct.PJconsts, ptr %134, i32 0, i32 60
  %136 = load double, ptr %135, align 8, !tbaa !59
  %137 = getelementptr inbounds nuw %struct.PJ_LP, ptr %4, i32 0, i32 0
  %138 = load double, ptr %137, align 8, !tbaa !62
  %139 = fadd double %138, %136
  store double %139, ptr %137, align 8, !tbaa !62
  %140 = load i32, ptr %9, align 4, !tbaa !54
  switch i32 %140, label %231 [
    i32 1, label %141
    i32 2, label %156
    i32 3, label %171
    i32 4, label %186
    i32 5, label %201
    i32 6, label %216
  ]

141:                                              ; preds = %78
  %142 = getelementptr inbounds nuw %struct.PJ_LP, ptr %4, i32 0, i32 0
  %143 = load double, ptr %142, align 8, !tbaa !62
  %144 = fcmp oge double %143, 0xC00921FB54479CB4
  br i1 %144, label %145, label %153

145:                                              ; preds = %141
  %146 = getelementptr inbounds nuw %struct.PJ_LP, ptr %4, i32 0, i32 0
  %147 = load double, ptr %146, align 8, !tbaa !62
  %148 = fcmp ole double %147, 0xBFF921FB543D4DE0
  br i1 %148, label %149, label %153

149:                                              ; preds = %145
  %150 = getelementptr inbounds nuw %struct.PJ_LP, ptr %4, i32 0, i32 1
  %151 = load double, ptr %150, align 8, !tbaa !64
  %152 = fcmp oge double %151, -1.000000e-10
  br label %153

153:                                              ; preds = %149, %145, %141
  %154 = phi i1 [ false, %145 ], [ false, %141 ], [ %152, %149 ]
  %155 = zext i1 %154 to i8
  store i8 %155, ptr %10, align 1, !tbaa !69
  br label %231

156:                                              ; preds = %78
  %157 = getelementptr inbounds nuw %struct.PJ_LP, ptr %4, i32 0, i32 0
  %158 = load double, ptr %157, align 8, !tbaa !62
  %159 = fcmp oge double %158, 0xBFF921FB544B0C50
  br i1 %159, label %160, label %168

160:                                              ; preds = %156
  %161 = getelementptr inbounds nuw %struct.PJ_LP, ptr %4, i32 0, i32 0
  %162 = load double, ptr %161, align 8, !tbaa !62
  %163 = fcmp ole double %162, 0x3FF0C1523834529D
  br i1 %163, label %164, label %168

164:                                              ; preds = %160
  %165 = getelementptr inbounds nuw %struct.PJ_LP, ptr %4, i32 0, i32 1
  %166 = load double, ptr %165, align 8, !tbaa !64
  %167 = fcmp oge double %166, -1.000000e-10
  br label %168

168:                                              ; preds = %164, %160, %156
  %169 = phi i1 [ false, %160 ], [ false, %156 ], [ %167, %164 ]
  %170 = zext i1 %169 to i8
  store i8 %170, ptr %10, align 1, !tbaa !69
  br label %231

171:                                              ; preds = %78
  %172 = getelementptr inbounds nuw %struct.PJ_LP, ptr %4, i32 0, i32 0
  %173 = load double, ptr %172, align 8, !tbaa !62
  %174 = fcmp oge double %173, 0x3FF0C1523826942D
  br i1 %174, label %175, label %183

175:                                              ; preds = %171
  %176 = getelementptr inbounds nuw %struct.PJ_LP, ptr %4, i32 0, i32 0
  %177 = load double, ptr %176, align 8, !tbaa !62
  %178 = fcmp ole double %177, 0x400921FB54479CB4
  br i1 %178, label %179, label %183

179:                                              ; preds = %175
  %180 = getelementptr inbounds nuw %struct.PJ_LP, ptr %4, i32 0, i32 1
  %181 = load double, ptr %180, align 8, !tbaa !64
  %182 = fcmp oge double %181, -1.000000e-10
  br label %183

183:                                              ; preds = %179, %175, %171
  %184 = phi i1 [ false, %175 ], [ false, %171 ], [ %182, %179 ]
  %185 = zext i1 %184 to i8
  store i8 %185, ptr %10, align 1, !tbaa !69
  br label %231

186:                                              ; preds = %78
  %187 = getelementptr inbounds nuw %struct.PJ_LP, ptr %4, i32 0, i32 0
  %188 = load double, ptr %187, align 8, !tbaa !62
  %189 = fcmp oge double %188, 0xC00921FB54479CB4
  br i1 %189, label %190, label %198

190:                                              ; preds = %186
  %191 = getelementptr inbounds nuw %struct.PJ_LP, ptr %4, i32 0, i32 0
  %192 = load double, ptr %191, align 8, !tbaa !62
  %193 = fcmp ole double %192, 0xBFF0C1523826942D
  br i1 %193, label %194, label %198

194:                                              ; preds = %190
  %195 = getelementptr inbounds nuw %struct.PJ_LP, ptr %4, i32 0, i32 1
  %196 = load double, ptr %195, align 8, !tbaa !64
  %197 = fcmp ole double %196, 1.000000e-10
  br label %198

198:                                              ; preds = %194, %190, %186
  %199 = phi i1 [ false, %190 ], [ false, %186 ], [ %197, %194 ]
  %200 = zext i1 %199 to i8
  store i8 %200, ptr %10, align 1, !tbaa !69
  br label %231

201:                                              ; preds = %78
  %202 = getelementptr inbounds nuw %struct.PJ_LP, ptr %4, i32 0, i32 0
  %203 = load double, ptr %202, align 8, !tbaa !62
  %204 = fcmp oge double %203, 0xBFF0C1523834529D
  br i1 %204, label %205, label %213

205:                                              ; preds = %201
  %206 = getelementptr inbounds nuw %struct.PJ_LP, ptr %4, i32 0, i32 0
  %207 = load double, ptr %206, align 8, !tbaa !62
  %208 = fcmp ole double %207, 0x3FF921FB544B0C50
  br i1 %208, label %209, label %213

209:                                              ; preds = %205
  %210 = getelementptr inbounds nuw %struct.PJ_LP, ptr %4, i32 0, i32 1
  %211 = load double, ptr %210, align 8, !tbaa !64
  %212 = fcmp ole double %211, 1.000000e-10
  br label %213

213:                                              ; preds = %209, %205, %201
  %214 = phi i1 [ false, %205 ], [ false, %201 ], [ %212, %209 ]
  %215 = zext i1 %214 to i8
  store i8 %215, ptr %10, align 1, !tbaa !69
  br label %231

216:                                              ; preds = %78
  %217 = getelementptr inbounds nuw %struct.PJ_LP, ptr %4, i32 0, i32 0
  %218 = load double, ptr %217, align 8, !tbaa !62
  %219 = fcmp oge double %218, 0x3FF921FB543D4DE0
  br i1 %219, label %220, label %228

220:                                              ; preds = %216
  %221 = getelementptr inbounds nuw %struct.PJ_LP, ptr %4, i32 0, i32 0
  %222 = load double, ptr %221, align 8, !tbaa !62
  %223 = fcmp ole double %222, 0x400921FB54479CB4
  br i1 %223, label %224, label %228

224:                                              ; preds = %220
  %225 = getelementptr inbounds nuw %struct.PJ_LP, ptr %4, i32 0, i32 1
  %226 = load double, ptr %225, align 8, !tbaa !64
  %227 = fcmp ole double %226, 1.000000e-10
  br label %228

228:                                              ; preds = %224, %220, %216
  %229 = phi i1 [ false, %220 ], [ false, %216 ], [ %227, %224 ]
  %230 = zext i1 %229 to i8
  store i8 %230, ptr %10, align 1, !tbaa !69
  br label %231

231:                                              ; preds = %78, %228, %213, %198, %183, %168, %153
  %232 = load i8, ptr %10, align 1, !tbaa !69, !range !70, !noundef !71
  %233 = trunc i8 %232 to i1
  br i1 %233, label %235, label %234

234:                                              ; preds = %231
  br label %237

235:                                              ; preds = %231
  %236 = load i32, ptr %9, align 4, !tbaa !54
  br label %237

237:                                              ; preds = %235, %234
  %238 = phi i32 [ 0, %234 ], [ %236, %235 ]
  store i32 %238, ptr %9, align 4, !tbaa !54
  call void @llvm.lifetime.end.p0(i64 1, ptr %10) #7
  br label %239

239:                                              ; preds = %237, %75
  %240 = load i32, ptr %9, align 4, !tbaa !54
  %241 = icmp ne i32 %240, 0
  br i1 %241, label %244, label %242

242:                                              ; preds = %239
  %243 = getelementptr inbounds nuw %struct.PJ_LP, ptr %4, i32 0, i32 0
  store double 0x7FF0000000000000, ptr %243, align 8, !tbaa !62
  br label %244

244:                                              ; preds = %242, %239
  %245 = load i32, ptr %9, align 4, !tbaa !54
  %246 = icmp ne i32 %245, 0
  br i1 %246, label %249, label %247

247:                                              ; preds = %244
  %248 = getelementptr inbounds nuw %struct.PJ_LP, ptr %4, i32 0, i32 1
  store double 0x7FF0000000000000, ptr %248, align 8, !tbaa !64
  br label %249

249:                                              ; preds = %247, %244
  call void @llvm.lifetime.end.p0(i64 4, ptr %9) #7
  call void @llvm.lifetime.end.p0(i64 8, ptr %8) #7
  call void @llvm.lifetime.end.p0(i64 8, ptr %7) #7
  %250 = load { double, double }, ptr %4, align 8
  ret { double, double } %250
}